target datalayout = "e-m:e-p270:32:32-p271:32:32-p272:64:64-i64:64-i128:128-f80:128-n8:16:32:64-S128"
target triple = "x86_64-pc-linux-gnu"

%struct._zend_cfg = type { i32, i32, ptr, ptr, ptr, i32 }
%struct._zend_basic_block = type { ptr, i32, i32, i32, i32, i32, i32, i32, i32, i32, i32, i32, [2 x i32] }

; Function Attrs: nounwind uwtable
define hidden void @zend_cfg_remark_reachable_blocks(ptr noundef %0, ptr noundef %1) #0 {
  %3 = alloca ptr, align 8
  %4 = alloca ptr, align 8
  %5 = alloca ptr, align 8
  %6 = alloca i32, align 4
  %7 = alloca i32, align 4
  store ptr %0, ptr %3, align 8
  store ptr %1, ptr %4, align 8
  %8 = load ptr, ptr %4, align 8
  %9 = getelementptr inbounds %struct._zend_cfg, ptr %8, i32 0, i32 2
  %10 = load ptr, ptr %9, align 8
  store ptr %10, ptr %5, align 8
  store i32 0, ptr %7, align 4
  store i32 0, ptr %6, align 4
  br label %11

11:                                               ; preds = %31, %2
  %12 = load i32, ptr %6, align 4
  %13 = load ptr, ptr %4, align 8
  %14 = getelementptr inbounds %struct._zend_cfg, ptr %13, i32 0, i32 0
  %15 = load i32, ptr %14, align 8
  %16 = icmp slt i32 %12, %15
  br i1 %16, label %17, label %34

17:                                               ; preds = %11
  %18 = load ptr, ptr %5, align 8
  %19 = load i32, ptr %6, align 4
  %20 = sext i32 %19 to i64
  %21 = getelementptr inbounds %struct._zend_basic_block, ptr %18, i64 %20
  %22 = getelementptr inbounds %struct._zend_basic_block, ptr %21, i32 0, i32 1
  %23 = load i32, ptr %22, align 8
  %24 = and i32 %23, -2147483648
  %25 = icmp ne i32 %24, 0
  br i1 %25, label %26, label %30

26:                                               ; preds = %17
  %27 = load i32, ptr %6, align 4
  store i32 %27, ptr %7, align 4
  %28 = load i32, ptr %6, align 4
  %29 = add nsw i32 %28, 1
  store i32 %29, ptr %6, align 4
  br label %34

30:                                               ; preds = %17
  br label %31

31:                                               ; preds = %30
  %32 = load i32, ptr %6, align 4
  %33 = add nsw i32 %32, 1
  store i32 %33, ptr %6, align 4
  br label %11

34:                                               ; preds = %26, %11
  store i32 0, ptr %6, align 4
  br label %35

35:                                               ; preds = %47, %34
  %36 = load i32, ptr %6, align 4
  %37 = load ptr, ptr %4, align 8
  %38 = getelementptr inbounds %struct._zend_cfg, ptr %37, i32 0, i32 0
  %39 = load i32, ptr %38, align 8
  %40 = icmp slt i32 %36, %39
  br i1 %40, label %41, label %50

41:                                               ; preds = %35
  %42 = load ptr, ptr %5, align 8
  %43 = load i32, ptr %6, align 4
  %44 = sext i32 %43 to i64
  %45 = getelementptr inbounds %struct._zend_basic_block, ptr %42, i64 %44
  %46 = getelementptr inbounds %struct._zend_basic_block, ptr %45, i32 0, i32 1
  store i32 0, ptr %46, align 8
  br label %47

47:                                               ; preds = %41
  %48 = load i32, ptr %6, align 4
  %49 = add nsw i32 %48, 1
  store i32 %49, ptr %6, align 4
  br label %35

50:                                               ; preds = %35
  %51 = load ptr, ptr %3, align 8
  %52 = load ptr, ptr %4, align 8
  %53 = load i32, ptr %7, align 4
  call void @zend_mark_reachable_blocks(ptr noundef %51, ptr noundef %52, i32 noundef %53)
  ret void
}