; Function Attrs: nounwind uwtable
define hidden void @zend_cfg_remark_reachable_blocks(ptr noundef %0, ptr nocapture noundef readonly %1) local_unnamed_addr #0 {
  %3 = getelementptr inbounds i8, ptr %1, i64 8
  %4 = load ptr, ptr %3, align 8
  %5 = load i32, ptr %1, align 8
  %6 = icmp sgt i32 %5, 0
  br i1 %6, label %.lr.ph.preheader, label %._crit_edge22

.lr.ph.preheader:                                 ; preds = %2
  %wide.trip.count = zext nneg i32 %5 to i64
  br label %.lr.ph

.lr.ph:                                           ; preds = %.lr.ph.preheader, %9
  %indvars.iv = phi i64 [ 0, %.lr.ph.preheader ], [ %indvars.iv.next, %9 ]
  %7 = getelementptr inbounds %struct._zend_basic_block, ptr %4, i64 %indvars.iv, i32 1
  %8 = load i32, ptr %7, align 8
  %.not = icmp sgt i32 %8, -1
  br i1 %.not, label %9, label %._crit_edge.split.loop.exit29

9:                                                ; preds = %.lr.ph
  %indvars.iv.next = add nuw nsw i64 %indvars.iv, 1
  %exitcond.not = icmp eq i64 %indvars.iv.next, %wide.trip.count
  br i1 %exitcond.not, label %._crit_edge, label %.lr.ph

._crit_edge.split.loop.exit29:                    ; preds = %.lr.ph
  %10 = trunc i64 %indvars.iv to i32
  br label %._crit_edge

._crit_edge:                                      ; preds = %9, %._crit_edge.split.loop.exit29
  %.0 = phi i32 [ %10, %._crit_edge.split.loop.exit29 ], [ 0, %9 ]
  br i1 %6, label %.lr.ph21, label %._crit_edge22

.lr.ph21:                                         ; preds = %._crit_edge, %.lr.ph21
  %indvars.iv24 = phi i64 [ %indvars.iv.next25, %.lr.ph21 ], [ 0, %._crit_edge ]
  %11 = getelementptr inbounds %struct._zend_basic_block, ptr %4, i64 %indvars.iv24, i32 1
  store i32 0, ptr %11, align 8
  %indvars.iv.next25 = add nuw nsw i64 %indvars.iv24, 1
  %12 = load i32, ptr %1, align 8
  %13 = sext i32 %12 to i64
  %14 = icmp slt i64 %indvars.iv.next25, %13
  br i1 %14, label %.lr.ph21, label %._crit_edge22

._crit_edge22:                                    ; preds = %.lr.ph21, %2, %._crit_edge
  %.028 = phi i32 [ %.0, %._crit_edge ], [ 0, %2 ], [ %.0, %.lr.ph21 ]
  tail call fastcc void @zend_mark_reachable_blocks(ptr noundef %0, ptr noundef nonnull %1, i32 noundef %.028)
  ret void
}